libArcus.so.3 libarcus3 #MINVER#
 _Z13createAddressRKNSt7__cxx1112basic_stringIcSt11char_traitsIcESaIcEEEi@Base 2.3.1
 _Z4hashRKNSt7__cxx1112basic_stringIcSt11char_traitsIcESaIcEEE@Base 2.3.1
 _ZN14ErrorCollector8AddErrorERKNSt7__cxx1112basic_stringIcSt11char_traitsIcESaIcEEEiiS7_@Base 2.3.1
 _ZN14ErrorCollectorD0Ev@Base 2.3.1
 _ZN14ErrorCollectorD1Ev@Base 2.3.1
 _ZN14ErrorCollectorD2Ev@Base 2.3.1
 _ZN5Arcus14SocketListener9setSocketEPNS_6SocketE@Base 2.3.1
 _ZN5Arcus16MessageTypeStore16dumpMessageTypesEv@Base 2.3.1
 _ZN5Arcus16MessageTypeStore16getMessageTypeIdERKSt10shared_ptrIN6google8protobuf7MessageEE@Base 2.3.1
 _ZN5Arcus16MessageTypeStore19registerMessageTypeEPKN6google8protobuf7MessageE@Base 2.3.1
 _ZN5Arcus16MessageTypeStore23registerAllMessageTypesERKNSt7__cxx1112basic_stringIcSt11char_traitsIcESaIcEEE@Base 2.3.1
 _ZN5Arcus16MessageTypeStoreC1Ev@Base 2.3.1
 _ZN5Arcus16MessageTypeStoreC2Ev@Base 2.3.1
 _ZN5Arcus16MessageTypeStoreD1Ev@Base 2.3.1
 _ZN5Arcus16MessageTypeStoreD2Ev@Base 2.3.1
 _ZN5Arcus5Error13setFatalErrorEb@Base 2.3.1
 _ZN5Arcus5Error18setNativeErrorCodeEi@Base 2.3.1
 _ZN5Arcus5ErrorC1ENS_9ErrorCode9ErrorCodeERKNSt7__cxx1112basic_stringIcSt11char_traitsIcESaIcEEE@Base 2.3.1
 _ZN5Arcus5ErrorC1Ev@Base 2.3.1
 _ZN5Arcus5ErrorC2ENS_9ErrorCode9ErrorCodeERKNSt7__cxx1112basic_stringIcSt11char_traitsIcESaIcEEE@Base 2.3.1
 _ZN5Arcus5ErrorC2Ev@Base 2.3.1
 _ZN5Arcus6Socket10clearErrorEv@Base 2.3.1
 _ZN5Arcus6Socket11addListenerEPNS_14SocketListenerE@Base 2.3.1
 _ZN5Arcus6Socket11sendMessageESt10shared_ptrIN6google8protobuf7MessageEE@Base 2.3.1
 _ZN5Arcus6Socket13createMessageERKNSt7__cxx1112basic_stringIcSt11char_traitsIcESaIcEEE@Base 2.3.1
 _ZN5Arcus6Socket14removeListenerEPNS_14SocketListenerE@Base 2.3.1
 _ZN5Arcus6Socket15takeNextMessageEv@Base 2.3.1
 _ZN5Arcus6Socket19registerMessageTypeEPKN6google8protobuf7MessageE@Base 2.3.1
 _ZN5Arcus6Socket23registerAllMessageTypesERKNSt7__cxx1112basic_stringIcSt11char_traitsIcESaIcEEE@Base 2.3.1
 _ZN5Arcus6Socket5closeEv@Base 2.3.1
 _ZN5Arcus6Socket5resetEv@Base 2.3.1
 _ZN5Arcus6Socket6listenERKNSt7__cxx1112basic_stringIcSt11char_traitsIcESaIcEEEi@Base 2.3.1
 _ZN5Arcus6Socket7Private10fatalErrorENS_9ErrorCode9ErrorCodeERKNSt7__cxx1112basic_stringIcSt11char_traitsIcESaIcEEE@Base 2.3.1
 _ZN5Arcus6Socket7Private11sendMessageERKSt10shared_ptrIN6google8protobuf7MessageEE@Base 2.3.1
 _ZN5Arcus6Socket7Private13handleMessageERKSt10shared_ptrINS_7Private11WireMessageEE@Base 2.3.1
 _ZN5Arcus6Socket7Private18receiveNextMessageEv@Base 2.3.1
 _ZN5Arcus6Socket7Private20checkConnectionStateEv@Base 2.3.1
 _ZN5Arcus6Socket7Private3runEv@Base 2.3.1
 _ZN5Arcus6Socket7Private5errorENS_9ErrorCode9ErrorCodeERKNSt7__cxx1112basic_stringIcSt11char_traitsIcESaIcEEE@Base 2.3.1
 _ZN5Arcus6Socket7connectERKNSt7__cxx1112basic_stringIcSt11char_traitsIcESaIcEEEi@Base 2.3.1
 _ZN5Arcus6SocketC1Ev@Base 2.3.1
 _ZN5Arcus6SocketC2Ev@Base 2.3.1
 _ZN5Arcus6SocketD0Ev@Base 2.3.1
 _ZN5Arcus6SocketD1Ev@Base 2.3.1
 _ZN5Arcus6SocketD2Ev@Base 2.3.1
 _ZN5Arcus7Private14PlatformSocket10writeBytesEmPKc@Base 2.3.1
 _ZN5Arcus7Private14PlatformSocket10writeInt32Ei@Base 2.3.1
 _ZN5Arcus7Private14PlatformSocket17setReceiveTimeoutEi@Base 2.3.1
 _ZN5Arcus7Private14PlatformSocket18getNativeErrorCodeEv@Base 2.3.1
 _ZN5Arcus7Private14PlatformSocket4bindERKNSt7__cxx1112basic_stringIcSt11char_traitsIcESaIcEEEi@Base 2.3.1
 _ZN5Arcus7Private14PlatformSocket5closeEv@Base 2.3.1
 _ZN5Arcus7Private14PlatformSocket5flushEv@Base 2.3.1
 _ZN5Arcus7Private14PlatformSocket6acceptEv@Base 2.3.1
 _ZN5Arcus7Private14PlatformSocket6createEv@Base 2.3.1
 _ZN5Arcus7Private14PlatformSocket6listenEi@Base 2.3.1
 _ZN5Arcus7Private14PlatformSocket7connectERKNSt7__cxx1112basic_stringIcSt11char_traitsIcESaIcEEEi@Base 2.3.1
 _ZN5Arcus7Private14PlatformSocket8shutdownENS1_17ShutdownDirectionE@Base 2.3.1
 _ZN5Arcus7Private14PlatformSocket9readBytesEmPc@Base 2.3.1
 _ZN5Arcus7Private14PlatformSocket9readInt32EPi@Base 2.3.1
 _ZN5Arcus7Private14PlatformSocketC1Ev@Base 2.3.1
 _ZN5Arcus7Private14PlatformSocketC2Ev@Base 2.3.1
 _ZN5Arcus7Private14PlatformSocketD1Ev@Base 2.3.1
 _ZN5Arcus7Private14PlatformSocketD2Ev@Base 2.3.1
 _ZN6google8protobuf8compiler23MultiFileErrorCollector10AddWarningERKNSt7__cxx1112basic_stringIcSt11char_traitsIcESaIcEEEiiSA_@Base 2.3.1
 _ZN9__gnu_cxx12__to_xstringINSt7__cxx1112basic_stringIcSt11char_traitsIcESaIcEEEcEET_PFiPT0_mPKS8_P13__va_list_tagEmSB_z@Base 2.3.1
 _ZNK5Arcus14SocketListener9getSocketEv@Base 2.3.1
 _ZNK5Arcus16MessageTypeStore13createMessageERKNSt7__cxx1112basic_stringIcSt11char_traitsIcESaIcEEE@Base 2.3.1
 _ZNK5Arcus16MessageTypeStore13createMessageEj@Base 2.3.1
 _ZNK5Arcus16MessageTypeStore16getErrorMessagesB5cxx11Ev@Base 2.3.1
 _ZNK5Arcus16MessageTypeStore7hasTypeERKNSt7__cxx1112basic_stringIcSt11char_traitsIcESaIcEEE@Base 2.3.1
 _ZNK5Arcus16MessageTypeStore7hasTypeEj@Base 2.3.1
 _ZNK5Arcus5Error12getErrorCodeEv@Base 2.3.1
 _ZNK5Arcus5Error12isFatalErrorEv@Base 2.3.1
 _ZNK5Arcus5Error15getErrorMessageB5cxx11Ev@Base 2.3.1
 _ZNK5Arcus5Error18getNativeErrorCodeEv@Base 2.3.1
 _ZNK5Arcus5Error7isValidEv@Base 2.3.1
 _ZNK5Arcus5Error8toStringB5cxx11Ev@Base 2.3.1
 _ZNK5Arcus6Socket12getLastErrorEv@Base 2.3.1
 _ZNK5Arcus6Socket8getStateEv@Base 2.3.1
 _ZNKSt5ctypeIcE8do_widenEc@Base 2.3.1
 _ZNSt10_HashtableIPKN6google8protobuf10DescriptorESt4pairIKS4_jESaIS7_ENSt8__detail10_Select1stESt8equal_toIS4_ESt4hashIS4_ENS9_18_Mod_range_hashingENS9_20_Default_ranged_hashENS9_20_Prime_rehash_policyENS9_17_Hashtable_traitsILb0ELb0ELb1EEEE21_M_insert_unique_nodeEmmPNS9_10_Hash_nodeIS7_Lb0EEE@Base 2.3.1
 _ZNSt10_HashtableIPKN6google8protobuf10DescriptorESt4pairIKS4_jESaIS7_ENSt8__detail10_Select1stESt8equal_toIS4_ESt4hashIS4_ENS9_18_Mod_range_hashingENS9_20_Default_ranged_hashENS9_20_Prime_rehash_policyENS9_17_Hashtable_traitsILb0ELb0ELb1EEEE9_M_rehashEmRKm@Base 2.3.1
 _ZNSt10_HashtableIjSt4pairIKjPKN6google8protobuf7MessageEESaIS7_ENSt8__detail10_Select1stESt8equal_toIjESt4hashIjENS9_18_Mod_range_hashingENS9_20_Default_ranged_hashENS9_20_Prime_rehash_policyENS9_17_Hashtable_traitsILb0ELb0ELb1EEEE21_M_insert_unique_nodeEmmPNS9_10_Hash_nodeIS7_Lb0EEE@Base 2.3.1
 _ZNSt10_HashtableIjSt4pairIKjPKN6google8protobuf7MessageEESaIS7_ENSt8__detail10_Select1stESt8equal_toIjESt4hashIjENS9_18_Mod_range_hashingENS9_20_Default_ranged_hashENS9_20_Prime_rehash_policyENS9_17_Hashtable_traitsILb0ELb0ELb1EEEE9_M_rehashEmRKm@Base 2.3.1
 _ZNSt11_Deque_baseISt10shared_ptrIN6google8protobuf7MessageEESaIS4_EE17_M_initialize_mapEm@Base 2.3.1
 _ZNSt15_Sp_counted_ptrIPN6google8protobuf7MessageELN9__gnu_cxx12_Lock_policyE2EE10_M_destroyEv@Base 2.3.1
 _ZNSt15_Sp_counted_ptrIPN6google8protobuf7MessageELN9__gnu_cxx12_Lock_policyE2EE10_M_disposeEv@Base 2.3.1
 _ZNSt15_Sp_counted_ptrIPN6google8protobuf7MessageELN9__gnu_cxx12_Lock_policyE2EE14_M_get_deleterERKSt9type_info@Base 2.3.1
 _ZNSt15_Sp_counted_ptrIPN6google8protobuf7MessageELN9__gnu_cxx12_Lock_policyE2EED0Ev@Base 2.3.1
 _ZNSt15_Sp_counted_ptrIPN6google8protobuf7MessageELN9__gnu_cxx12_Lock_policyE2EED1Ev@Base 2.3.1
 _ZNSt15_Sp_counted_ptrIPN6google8protobuf7MessageELN9__gnu_cxx12_Lock_policyE2EED2Ev@Base 2.3.1
 _ZNSt16_Sp_counted_baseILN9__gnu_cxx12_Lock_policyE2EE10_M_releaseEv@Base 2.3.1
 _ZNSt23_Sp_counted_ptr_inplaceI14ErrorCollectorSaIS0_ELN9__gnu_cxx12_Lock_policyE2EE10_M_destroyEv@Base 2.3.1
 _ZNSt23_Sp_counted_ptr_inplaceI14ErrorCollectorSaIS0_ELN9__gnu_cxx12_Lock_policyE2EE10_M_disposeEv@Base 2.3.1
 _ZNSt23_Sp_counted_ptr_inplaceI14ErrorCollectorSaIS0_ELN9__gnu_cxx12_Lock_policyE2EE14_M_get_deleterERKSt9type_info@Base 2.3.1
 _ZNSt23_Sp_counted_ptr_inplaceI14ErrorCollectorSaIS0_ELN9__gnu_cxx12_Lock_policyE2EED0Ev@Base 2.3.1
 _ZNSt23_Sp_counted_ptr_inplaceI14ErrorCollectorSaIS0_ELN9__gnu_cxx12_Lock_policyE2EED1Ev@Base 2.3.1
 _ZNSt23_Sp_counted_ptr_inplaceI14ErrorCollectorSaIS0_ELN9__gnu_cxx12_Lock_policyE2EED2Ev@Base 2.3.1
 _ZNSt23_Sp_counted_ptr_inplaceIN5Arcus7Private11WireMessageESaIS2_ELN9__gnu_cxx12_Lock_policyE2EE10_M_destroyEv@Base 2.3.1
 _ZNSt23_Sp_counted_ptr_inplaceIN5Arcus7Private11WireMessageESaIS2_ELN9__gnu_cxx12_Lock_policyE2EE10_M_disposeEv@Base 2.3.1
 _ZNSt23_Sp_counted_ptr_inplaceIN5Arcus7Private11WireMessageESaIS2_ELN9__gnu_cxx12_Lock_policyE2EE14_M_get_deleterERKSt9type_info@Base 2.3.1
 _ZNSt23_Sp_counted_ptr_inplaceIN5Arcus7Private11WireMessageESaIS2_ELN9__gnu_cxx12_Lock_policyE2EED0Ev@Base 2.3.1
 _ZNSt23_Sp_counted_ptr_inplaceIN5Arcus7Private11WireMessageESaIS2_ELN9__gnu_cxx12_Lock_policyE2EED1Ev@Base 2.3.1
 _ZNSt23_Sp_counted_ptr_inplaceIN5Arcus7Private11WireMessageESaIS2_ELN9__gnu_cxx12_Lock_policyE2EED2Ev@Base 2.3.1
 _ZNSt23_Sp_counted_ptr_inplaceIN6google8protobuf21DynamicMessageFactoryESaIS2_ELN9__gnu_cxx12_Lock_policyE2EE10_M_destroyEv@Base 2.3.1
 _ZNSt23_Sp_counted_ptr_inplaceIN6google8protobuf21DynamicMessageFactoryESaIS2_ELN9__gnu_cxx12_Lock_policyE2EE10_M_disposeEv@Base 2.3.1
 _ZNSt23_Sp_counted_ptr_inplaceIN6google8protobuf21DynamicMessageFactoryESaIS2_ELN9__gnu_cxx12_Lock_policyE2EE14_M_get_deleterERKSt9type_info@Base 2.3.1
 _ZNSt23_Sp_counted_ptr_inplaceIN6google8protobuf21DynamicMessageFactoryESaIS2_ELN9__gnu_cxx12_Lock_policyE2EED0Ev@Base 2.3.1
 _ZNSt23_Sp_counted_ptr_inplaceIN6google8protobuf21DynamicMessageFactoryESaIS2_ELN9__gnu_cxx12_Lock_policyE2EED1Ev@Base 2.3.1
 _ZNSt23_Sp_counted_ptr_inplaceIN6google8protobuf21DynamicMessageFactoryESaIS2_ELN9__gnu_cxx12_Lock_policyE2EED2Ev@Base 2.3.1
 _ZNSt23_Sp_counted_ptr_inplaceIN6google8protobuf8compiler14DiskSourceTreeESaIS3_ELN9__gnu_cxx12_Lock_policyE2EE10_M_destroyEv@Base 2.3.1
 _ZNSt23_Sp_counted_ptr_inplaceIN6google8protobuf8compiler14DiskSourceTreeESaIS3_ELN9__gnu_cxx12_Lock_policyE2EE10_M_disposeEv@Base 2.3.1
 _ZNSt23_Sp_counted_ptr_inplaceIN6google8protobuf8compiler14DiskSourceTreeESaIS3_ELN9__gnu_cxx12_Lock_policyE2EE14_M_get_deleterERKSt9type_info@Base 2.3.1
 _ZNSt23_Sp_counted_ptr_inplaceIN6google8protobuf8compiler14DiskSourceTreeESaIS3_ELN9__gnu_cxx12_Lock_policyE2EED0Ev@Base 2.3.1
 _ZNSt23_Sp_counted_ptr_inplaceIN6google8protobuf8compiler14DiskSourceTreeESaIS3_ELN9__gnu_cxx12_Lock_policyE2EED1Ev@Base 2.3.1
 _ZNSt23_Sp_counted_ptr_inplaceIN6google8protobuf8compiler14DiskSourceTreeESaIS3_ELN9__gnu_cxx12_Lock_policyE2EED2Ev@Base 2.3.1
 _ZNSt23_Sp_counted_ptr_inplaceIN6google8protobuf8compiler8ImporterESaIS3_ELN9__gnu_cxx12_Lock_policyE2EE10_M_destroyEv@Base 2.3.1
 _ZNSt23_Sp_counted_ptr_inplaceIN6google8protobuf8compiler8ImporterESaIS3_ELN9__gnu_cxx12_Lock_policyE2EE10_M_disposeEv@Base 2.3.1
 _ZNSt23_Sp_counted_ptr_inplaceIN6google8protobuf8compiler8ImporterESaIS3_ELN9__gnu_cxx12_Lock_policyE2EE14_M_get_deleterERKSt9type_info@Base 2.3.1
 _ZNSt23_Sp_counted_ptr_inplaceIN6google8protobuf8compiler8ImporterESaIS3_ELN9__gnu_cxx12_Lock_policyE2EED0Ev@Base 2.3.1
 _ZNSt23_Sp_counted_ptr_inplaceIN6google8protobuf8compiler8ImporterESaIS3_ELN9__gnu_cxx12_Lock_policyE2EED1Ev@Base 2.3.1
 _ZNSt23_Sp_counted_ptr_inplaceIN6google8protobuf8compiler8ImporterESaIS3_ELN9__gnu_cxx12_Lock_policyE2EED2Ev@Base 2.3.1
 _ZNSt5dequeISt10shared_ptrIN6google8protobuf7MessageEESaIS4_EE16_M_pop_front_auxEv@Base 2.3.1
 _ZNSt5dequeISt10shared_ptrIN6google8protobuf7MessageEESaIS4_EE16_M_push_back_auxIJRKS4_EEEvDpOT_@Base 2.3.1
 _ZNSt5dequeISt10shared_ptrIN6google8protobuf7MessageEESaIS4_EE19_M_destroy_data_auxESt15_Deque_iteratorIS4_RS4_PS4_ESA_@Base 2.3.1
 _ZNSt5dequeISt10shared_ptrIN6google8protobuf7MessageEESaIS4_EED1Ev@Base 2.3.1
 _ZNSt5dequeISt10shared_ptrIN6google8protobuf7MessageEESaIS4_EED2Ev@Base 2.3.1
 _ZNSt7__cxx1110_List_baseISt10shared_ptrIN6google8protobuf7MessageEESaIS5_EE8_M_clearEv@Base 2.3.1
 _ZNSt8__detail9_Map_baseIjSt4pairIKjPKN6google8protobuf7MessageEESaIS8_ENS_10_Select1stESt8equal_toIjESt4hashIjENS_18_Mod_range_hashingENS_20_Default_ranged_hashENS_20_Prime_rehash_policyENS_17_Hashtable_traitsILb0ELb0ELb1EEELb1EEixERS2_@Base 2.3.1
 _ZTI14ErrorCollector@Base 2.3.1
 _ZTIN5Arcus6SocketE@Base 2.3.1
 _ZTISt11_Mutex_baseILN9__gnu_cxx12_Lock_policyE2EE@Base 2.3.1
 _ZTISt15_Sp_counted_ptrIPN6google8protobuf7MessageELN9__gnu_cxx12_Lock_policyE2EE@Base 2.3.1
 _ZTISt16_Sp_counted_baseILN9__gnu_cxx12_Lock_policyE2EE@Base 2.3.1
 _ZTISt19_Sp_make_shared_tag@Base 2.3.1
 _ZTISt23_Sp_counted_ptr_inplaceI14ErrorCollectorSaIS0_ELN9__gnu_cxx12_Lock_policyE2EE@Base 2.3.1
 _ZTISt23_Sp_counted_ptr_inplaceIN5Arcus7Private11WireMessageESaIS2_ELN9__gnu_cxx12_Lock_policyE2EE@Base 2.3.1
 _ZTISt23_Sp_counted_ptr_inplaceIN6google8protobuf21DynamicMessageFactoryESaIS2_ELN9__gnu_cxx12_Lock_policyE2EE@Base 2.3.1
 _ZTISt23_Sp_counted_ptr_inplaceIN6google8protobuf8compiler14DiskSourceTreeESaIS3_ELN9__gnu_cxx12_Lock_policyE2EE@Base 2.3.1
 _ZTISt23_Sp_counted_ptr_inplaceIN6google8protobuf8compiler8ImporterESaIS3_ELN9__gnu_cxx12_Lock_policyE2EE@Base 2.3.1
 _ZTS14ErrorCollector@Base 2.3.1
 _ZTSN5Arcus6SocketE@Base 2.3.1
 _ZTSSt11_Mutex_baseILN9__gnu_cxx12_Lock_policyE2EE@Base 2.3.1
 _ZTSSt15_Sp_counted_ptrIPN6google8protobuf7MessageELN9__gnu_cxx12_Lock_policyE2EE@Base 2.3.1
 _ZTSSt16_Sp_counted_baseILN9__gnu_cxx12_Lock_policyE2EE@Base 2.3.1
 _ZTSSt19_Sp_make_shared_tag@Base 2.3.1
 _ZTSSt23_Sp_counted_ptr_inplaceI14ErrorCollectorSaIS0_ELN9__gnu_cxx12_Lock_policyE2EE@Base 2.3.1
 _ZTSSt23_Sp_counted_ptr_inplaceIN5Arcus7Private11WireMessageESaIS2_ELN9__gnu_cxx12_Lock_policyE2EE@Base 2.3.1
 _ZTSSt23_Sp_counted_ptr_inplaceIN6google8protobuf21DynamicMessageFactoryESaIS2_ELN9__gnu_cxx12_Lock_policyE2EE@Base 2.3.1
 _ZTSSt23_Sp_counted_ptr_inplaceIN6google8protobuf8compiler14DiskSourceTreeESaIS3_ELN9__gnu_cxx12_Lock_policyE2EE@Base 2.3.1
 _ZTSSt23_Sp_counted_ptr_inplaceIN6google8protobuf8compiler8ImporterESaIS3_ELN9__gnu_cxx12_Lock_policyE2EE@Base 2.3.1
 _ZTV14ErrorCollector@Base 2.3.1
 _ZTVN5Arcus6SocketE@Base 2.3.1
 _ZTVSt15_Sp_counted_ptrIPN6google8protobuf7MessageELN9__gnu_cxx12_Lock_policyE2EE@Base 2.3.1
 _ZTVSt23_Sp_counted_ptr_inplaceI14ErrorCollectorSaIS0_ELN9__gnu_cxx12_Lock_policyE2EE@Base 2.3.1
 _ZTVSt23_Sp_counted_ptr_inplaceIN5Arcus7Private11WireMessageESaIS2_ELN9__gnu_cxx12_Lock_policyE2EE@Base 2.3.1
 _ZTVSt23_Sp_counted_ptr_inplaceIN6google8protobuf21DynamicMessageFactoryESaIS2_ELN9__gnu_cxx12_Lock_policyE2EE@Base 2.3.1
 _ZTVSt23_Sp_counted_ptr_inplaceIN6google8protobuf8compiler14DiskSourceTreeESaIS3_ELN9__gnu_cxx12_Lock_policyE2EE@Base 2.3.1
 _ZTVSt23_Sp_counted_ptr_inplaceIN6google8protobuf8compiler8ImporterESaIS3_ELN9__gnu_cxx12_Lock_policyE2EE@Base 2.3.1
 _ZlsRSoRKN5Arcus5ErrorE@Base 2.3.1
